(dp0
S'acc'
p1
(lp2
cnumpy.core.multiarray
scalar
p3
(cnumpy
dtype
p4
(S'f8'
p5
I0
I1
tp6
Rp7
(I3
S'<'
p8
NNNI-1
I-1
I0
tp9
bS"V'\xa8;\xf2Q\xdc?"
p10
tp11
Rp12
asS'loss'
p13
(lp14
g3
(g7
S'\x7flI\x00\xdat\xf9?'
p15
tp16
Rp17
asS'val_acc'
p18
(lp19
g3
(g7
S'HP\xfc\x18s\xd7\xde?'
p20
tp21
Rp22
asS'val_loss'
p23
(lp24
g3
(g7
S'7\x89A\x00\xa7H\xf7?'
p25
tp26
Rp27
as.